; Function Attrs: nounwind uwtable
define dso_local noundef zeroext i1 @errstart(i32 noundef %0, ptr noundef %1) local_unnamed_addr #3 {
  %3 = icmp sgt i32 %0, 20
  br i1 %3, label %4, label %.loopexit

4:                                                ; preds = %2
  %5 = load volatile i32, ptr @CritSectionCount, align 4
  %.not = icmp eq i32 %5, 0
  %spec.select = select i1 %.not, i32 %0, i32 23
  %6 = icmp eq i32 %spec.select, 21
  br i1 %6, label %7, label %17

7:                                                ; preds = %4
  %8 = load ptr, ptr @PG_exception_stack, align 8
  %9 = icmp eq ptr %8, null
  br i1 %9, label %16, label %10

10:                                               ; preds = %7
  %11 = load i8, ptr @ExitOnAnyError, align 1, !range !4, !noundef !5
  %12 = trunc nuw i8 %11 to i1
  br i1 %12, label %16, label %13

13:                                               ; preds = %10
  %14 = load i8, ptr @proc_exit_inprogress, align 1, !range !4, !noundef !5
  %15 = trunc nuw i8 %14 to i1
  br i1 %15, label %16, label %17

16:                                               ; preds = %13, %10, %7
  br label %17

17:                                               ; preds = %13, %16, %4
  %.2 = phi i32 [ 22, %16 ], [ 21, %13 ], [ %spec.select, %4 ]
  %18 = load i32, ptr @errordata_stack_depth, align 4
  %.not3437 = icmp slt i32 %18, 0
  br i1 %.not3437, label %.loopexit, label %.lr.ph.preheader

.lr.ph.preheader:                                 ; preds = %17
  %19 = add nuw i32 %18, 1
  %smax = tail call i32 @llvm.smax.i32(i32 %19, i32 1)
  %wide.trip.count = zext nneg i32 %smax to i64
  br label %.lr.ph

.lr.ph:                                           ; preds = %.lr.ph.preheader, %.lr.ph
  %indvars.iv = phi i64 [ 0, %.lr.ph.preheader ], [ %indvars.iv.next, %.lr.ph ]
  %.338 = phi i32 [ %.2, %.lr.ph.preheader ], [ %.3., %.lr.ph ]
  %20 = getelementptr inbounds nuw [5 x %struct.ErrorData], ptr @errordata, i64 0, i64 %indvars.iv
  %21 = load i32, ptr %20, align 8
  %.3. = tail call i32 @llvm.smax.i32(i32 %.338, i32 %21)
  %indvars.iv.next = add nuw nsw i64 %indvars.iv, 1
  %exitcond = icmp eq i64 %indvars.iv.next, %wide.trip.count
  br i1 %exitcond, label %.loopexit, label %.lr.ph, !llvm.loop !6

.loopexit:                                        ; preds = %.lr.ph, %17, %2
  %.030 = phi i32 [ %0, %2 ], [ %.2, %17 ], [ %.3., %.lr.ph ]
  %22 = load i32, ptr @log_min_messages, align 4
  %23 = add i32 %.030, -15
  %or.cond.i.i = icmp ult i32 %23, 2
  br i1 %or.cond.i.i, label %24, label %26

24:                                               ; preds = %.loopexit
  %25 = icmp slt i32 %22, 22
  br i1 %25, label %should_output_to_server.exit, label %33

26:                                               ; preds = %.loopexit
  %27 = icmp eq i32 %.030, 20
  br i1 %27, label %should_output_to_server.exit, label %28

28:                                               ; preds = %26
  %29 = icmp eq i32 %22, 15
  br i1 %29, label %30, label %32

30:                                               ; preds = %28
  %31 = icmp sgt i32 %.030, 21
  br i1 %31, label %should_output_to_server.exit, label %33

32:                                               ; preds = %28
  %.not.i.i = icmp slt i32 %.030, %22
  br i1 %.not.i.i, label %33, label %should_output_to_server.exit

33:                                               ; preds = %32, %30, %24
  br label %should_output_to_server.exit

should_output_to_server.exit:                     ; preds = %24, %26, %30, %32, %33
  %.0.i.i = phi i1 [ false, %33 ], [ true, %24 ], [ false, %26 ], [ true, %30 ], [ true, %32 ]
  %34 = zext i1 %.0.i.i to i8
  %35 = load i32, ptr @whereToSendOutput, align 4
  %36 = icmp eq i32 %35, 2
  %37 = icmp ne i32 %.030, 16
  %or.cond.i = and i1 %37, %36
  br i1 %or.cond.i, label %38, label %should_output_to_client.exit

38:                                               ; preds = %should_output_to_server.exit
  %39 = load i8, ptr @ClientAuthInProgress, align 1, !range !4, !noundef !5
  %40 = trunc nuw i8 %39 to i1
  br i1 %40, label %41, label %43

41:                                               ; preds = %38
  %42 = icmp sgt i32 %.030, 20
  br label %should_output_to_client.exit

43:                                               ; preds = %38
  %44 = load i32, ptr @client_min_messages, align 4
  %45 = icmp sge i32 %.030, %44
  %46 = icmp eq i32 %.030, 17
  %47 = or i1 %46, %45
  br label %should_output_to_client.exit

should_output_to_client.exit:                     ; preds = %should_output_to_server.exit, %41, %43
  %.0.i = phi i1 [ %42, %41 ], [ %47, %43 ], [ false, %should_output_to_server.exit ]
  %48 = zext i1 %.0.i to i8
  %49 = icmp sgt i32 %.030, 20
  %brmerge = or i1 %49, %.0.i.i
  %brmerge36 = select i1 %brmerge, i1 true, i1 %.0.i
  br i1 %brmerge36, label %50, label %91

50:                                               ; preds = %should_output_to_client.exit
  %51 = load ptr, ptr @ErrorContext, align 8
  %52 = icmp eq ptr %51, null
  br i1 %52, label %53, label %54

53:                                               ; preds = %50
  tail call void (ptr, ...) @write_stderr(ptr noundef nonnull @.str)
  tail call void @exit(i32 noundef 2) #31
  unreachable

54:                                               ; preds = %50
  %55 = load i32, ptr @recursion_depth, align 4
  %56 = add i32 %55, 1
  store i32 %56, ptr @recursion_depth, align 4
  %57 = icmp sgt i32 %55, 0
  %or.cond = and i1 %49, %57
  br i1 %or.cond, label %58, label %62

58:                                               ; preds = %54
  tail call void @MemoryContextReset(ptr noundef nonnull %51) #32
  %59 = load i32, ptr @recursion_depth, align 4
  %60 = icmp sgt i32 %59, 2
  br i1 %60, label %61, label %62

61:                                               ; preds = %58
  store ptr null, ptr @error_context_stack, align 8
  store ptr null, ptr @debug_query_string, align 8
  br label %62

62:                                               ; preds = %58, %61, %54
  %63 = phi i32 [ %59, %58 ], [ %59, %61 ], [ %56, %54 ]
  %64 = load i32, ptr @errordata_stack_depth, align 4
  %65 = add i32 %64, 1
  store i32 %65, ptr @errordata_stack_depth, align 4
  %66 = icmp sgt i32 %65, 4
  br i1 %66, label %67, label %get_error_stack_entry.exit, !prof !8

67:                                               ; preds = %62
  store i32 -1, ptr @errordata_stack_depth, align 4
  %68 = tail call zeroext i1 @errstart_cold(i32 noundef 23, ptr noundef null) #33
  tail call void @llvm.assume(i1 %68)
  %69 = tail call i32 (ptr, ...) @errmsg_internal(ptr noundef nonnull @.str.46)
  tail call void @errfinish(ptr noundef nonnull @.str.2, i32 noundef 761, ptr noundef nonnull @__func__.get_error_stack_entry)
  unreachable

get_error_stack_entry.exit:                       ; preds = %62
  %70 = sext i32 %65 to i64
  %71 = getelementptr inbounds [5 x %struct.ErrorData], ptr @errordata, i64 0, i64 %70
  tail call void @llvm.memset.p0.i64(ptr noundef nonnull align 8 dereferenceable(184) %71, i8 0, i64 184, i1 false)
  %72 = tail call ptr @__errno_location() #34
  %73 = load i32, ptr %72, align 4
  %74 = getelementptr inbounds nuw i8, ptr %71, i64 168
  store i32 %73, ptr %74, align 8
  store i32 %.030, ptr %71, align 8
  %75 = getelementptr inbounds nuw i8, ptr %71, i64 4
  store i8 %34, ptr %75, align 4
  %76 = getelementptr inbounds nuw i8, ptr %71, i64 5
  store i8 %48, ptr %76, align 1
  %.not.i = icmp eq ptr %1, null
  %77 = select i1 %.not.i, ptr @.str.3, ptr %1
  %78 = getelementptr inbounds nuw i8, ptr %71, i64 32
  store ptr %77, ptr %78, align 8
  %79 = getelementptr inbounds nuw i8, ptr %71, i64 40
  store ptr %77, ptr %79, align 8
  br i1 %49, label %80, label %82

80:                                               ; preds = %get_error_stack_entry.exit
  %81 = getelementptr inbounds nuw i8, ptr %71, i64 48
  store i32 2600, ptr %81, align 8
  br label %87

82:                                               ; preds = %get_error_stack_entry.exit
  %83 = icmp sgt i32 %.030, 18
  %84 = getelementptr inbounds nuw i8, ptr %71, i64 48
  br i1 %83, label %85, label %86

85:                                               ; preds = %82
  store i32 64, ptr %84, align 8
  br label %87

86:                                               ; preds = %82
  store i32 0, ptr %84, align 8
  br label %87

87:                                               ; preds = %85, %86, %80
  %88 = load ptr, ptr @ErrorContext, align 8
  %89 = getelementptr inbounds nuw i8, ptr %71, i64 176
  store ptr %88, ptr %89, align 8
  %90 = add i32 %63, -1
  store i32 %90, ptr @recursion_depth, align 4
  br label %91

91:                                               ; preds = %should_output_to_client.exit, %87
  ret i1 %brmerge36
}